; Function Attrs: mustprogress nofree norecurse nosync nounwind willreturn memory(argmem: read) uwtable
define noundef zeroext i1 @_ZNK5faiss18IndexIVFPQFastScan18lookup_table_is_3dEv(ptr nocapture noundef nonnull readonly align 8 dereferenceable(568) %0) unnamed_addr #3 align 2 {
  %2 = getelementptr inbounds i8, ptr %0, i64 256
  %3 = load i8, ptr %2, align 8
  %4 = and i8 %3, 1
  %.not = icmp ne i8 %4, 0
  %5 = getelementptr inbounds i8, ptr %0, i64 28
  %6 = load i32, ptr %5, align 4
  %7 = icmp eq i32 %6, 1
  %8 = select i1 %.not, i1 %7, i1 false
  ret i1 %8
}